target datalayout = "e-m:e-p270:32:32-p271:32:32-p272:64:64-i64:64-i128:128-f80:128-n8:16:32:64-S128"
target triple = "x86_64-pc-linux-gnu"

%"class.metaspace::VirtualSpaceList" = type { ptr, ptr, ptr, %"class.metaspace::AbstractCounter", i8, ptr, %"class.metaspace::AbstractCounter.0", %"class.metaspace::AbstractCounter.0" }
%"class.metaspace::AbstractCounter" = type { i32 }
%"class.metaspace::AbstractCounter.0" = type { i64 }
%class.ReservedSpace = type <{ ptr, i64, i64, i64, i64, i8, [3 x i8], i32, i8, [7 x i8] }>
%"class.metaspace::VirtualSpaceNode" = type { ptr, %class.ReservedSpace, i8, ptr, i64, i64, %"class.metaspace::CommitMask", %"class.metaspace::RootChunkAreaLUT", ptr, ptr, ptr }
%"class.metaspace::CommitMask" = type { %class.CHeapBitMap.base, ptr, i64, i64 }
%class.CHeapBitMap.base = type <{ %class.GrowableBitMap, i8 }>
%class.GrowableBitMap = type { %class.BitMap }
%class.BitMap = type { ptr, i64 }
%"class.metaspace::RootChunkAreaLUT" = type { ptr, i32, ptr }

@_ZTVN9metaspace16VirtualSpaceListE = hidden unnamed_addr constant { [4 x ptr] } { [4 x ptr] [ptr null, ptr null, ptr @_ZN9metaspace16VirtualSpaceListD1Ev, ptr @_ZN9metaspace16VirtualSpaceListD0Ev] }, align 8

; Function Attrs: mustprogress nounwind uwtable
define linkonce_odr hidden void @_ZN12CHeapObjBasedlEPv(ptr noundef %0) #1 comdat align 2 {
  %2 = alloca ptr, align 8
  store ptr %0, ptr %2, align 8
  %3 = load ptr, ptr %2, align 8
  call void @_Z8FreeHeapPv(ptr noundef %3)
  ret void
}

; Function Attrs: mustprogress nounwind uwtable
define linkonce_odr hidden void @_ZN8CHeapObjIL8MEMFLAGS1EEdlEPv(ptr noundef %0) #1 comdat align 2 {
  %2 = alloca ptr, align 8
  store ptr %0, ptr %2, align 8
  %3 = load ptr, ptr %2, align 8
  call void @_ZN12CHeapObjBasedlEPv(ptr noundef %3) #6
  ret void
}

; Function Attrs: mustprogress nounwind uwtable
define linkonce_odr hidden noundef ptr @_ZNK9metaspace16VirtualSpaceNode4nextEv(ptr noundef nonnull align 8 dereferenceable(192) %0) #1 comdat align 2 {
  %2 = alloca ptr, align 8
  store ptr %0, ptr %2, align 8
  %3 = load ptr, ptr %2, align 8
  %4 = getelementptr inbounds %"class.metaspace::VirtualSpaceNode", ptr %3, i32 0, i32 0
  %5 = load ptr, ptr %4, align 8
  ret ptr %5
}

; Function Attrs: mustprogress nounwind uwtable
define hidden void @_ZN9metaspace16VirtualSpaceListD2Ev(ptr noundef nonnull align 8 dereferenceable(56) %0) unnamed_addr #1 align 2 {
  %2 = alloca ptr, align 8
  %3 = alloca ptr, align 8
  %4 = alloca ptr, align 8
  store ptr %0, ptr %2, align 8
  %5 = load ptr, ptr %2, align 8
  store ptr getelementptr inbounds inrange(-16, 16) ({ [4 x ptr] }, ptr @_ZTVN9metaspace16VirtualSpaceListE, i32 0, i32 0, i32 2), ptr %5, align 8
  %6 = getelementptr inbounds %"class.metaspace::VirtualSpaceList", ptr %5, i32 0, i32 2
  %7 = load volatile ptr, ptr %6, align 8
  store ptr %7, ptr %3, align 8
  %8 = load ptr, ptr %3, align 8
  store ptr %8, ptr %4, align 8
  br label %9

9:                                                ; preds = %18, %1
  %10 = load ptr, ptr %3, align 8
  %11 = icmp ne ptr %10, null
  br i1 %11, label %12, label %20

12:                                               ; preds = %9
  %13 = load ptr, ptr %3, align 8
  %14 = call noundef ptr @_ZNK9metaspace16VirtualSpaceNode4nextEv(ptr noundef nonnull align 8 dereferenceable(192) %13)
  store ptr %14, ptr %4, align 8
  %15 = load ptr, ptr %3, align 8
  %16 = icmp eq ptr %15, null
  br i1 %16, label %18, label %17

17:                                               ; preds = %12
  call void @_ZN9metaspace16VirtualSpaceNodeD1Ev(ptr noundef nonnull align 8 dereferenceable(192) %15) #6
  call void @_ZN8CHeapObjIL8MEMFLAGS1EEdlEPv(ptr noundef %15) #6
  br label %18

18:                                               ; preds = %17, %12
  %19 = load ptr, ptr %4, align 8
  store ptr %19, ptr %3, align 8
  br label %9, !llvm.loop !6

20:                                               ; preds = %9
  ret void
}